; Function Attrs: mustprogress nounwind uwtable
define internal void @_ZN9grpc_core12_GLOBAL__N_18RingHash4RingD0Ev(ptr noundef nonnull align 8 dereferenceable(40) %this) unnamed_addr #4 align 2 personality ptr @__gxx_personality_v0 {
entry:
  store ptr getelementptr inbounds ({ [4 x ptr] }, ptr @_ZTVN9grpc_core12_GLOBAL__N_18RingHash4RingE, i64 0, i32 0, i64 2), ptr %this, align 8
  %ring_.i = getelementptr inbounds i8, ptr %this, i64 16
  %ring_.val.i = load ptr, ptr %ring_.i, align 8
  %tobool.not.i.i.i.i = icmp eq ptr %ring_.val.i, null
  br i1 %tobool.not.i.i.i.i, label %_ZN9grpc_core12_GLOBAL__N_18RingHash4RingD2Ev.exit, label %if.then.i.i.i.i

if.then.i.i.i.i:                                  ; preds = %entry
  tail call void @_ZdlPv(ptr noundef nonnull %ring_.val.i) #25
  br label %_ZN9grpc_core12_GLOBAL__N_18RingHash4RingD2Ev.exit

_ZN9grpc_core12_GLOBAL__N_18RingHash4RingD2Ev.exit: ; preds = %entry, %if.then.i.i.i.i
  tail call void @_ZdlPv(ptr noundef nonnull %this) #25
  ret void
}